target datalayout = "e-m:e-p270:32:32-p271:32:32-p272:64:64-i64:64-i128:128-f80:128-n8:16:32:64-S128"
target triple = "x86_64-pc-linux-gnu"

%struct.expert_field = type { i32, i32 }

@hf_ip_opt_type = internal global i32 0, align 4
@hf_ip_opt_type_copy = internal global i32 0, align 4
@hf_ip_opt_type_class = internal global i32 0, align 4
@hf_ip_opt_type_number = internal global i32 0, align 4
@hf_ip_opt_len = internal global i32 0, align 4
@ett_ip_opt_type = internal global i32 0, align 4
@ei_ip_opt_len_invalid = internal global %struct.expert_field zeroinitializer, align 4
@.str.600 = private unnamed_addr constant [12 x i8] c" (%u bytes)\00", align 1

; Function Attrs: null_pointer_is_valid sspstrong uwtable
define internal void @dissect_ipopt_type(ptr noundef %0, i32 noundef %1, ptr noundef %2) #1 {
  %4 = alloca ptr, align 8
  %5 = alloca i32, align 4
  %6 = alloca ptr, align 8
  %7 = alloca ptr, align 8
  %8 = alloca ptr, align 8
  store ptr %0, ptr %4, align 8
  store i32 %1, ptr %5, align 4
  store ptr %2, ptr %6, align 8
  call void @llvm.lifetime.start.p0(i64 8, ptr %7) #12
  call void @llvm.lifetime.start.p0(i64 8, ptr %8) #12
  %9 = load ptr, ptr %6, align 8
  %10 = load i32, ptr @hf_ip_opt_type, align 4
  %11 = load ptr, ptr %4, align 8
  %12 = load i32, ptr %5, align 4
  %13 = call ptr @proto_tree_add_item(ptr noundef %9, i32 noundef %10, ptr noundef %11, i32 noundef %12, i32 noundef 1, i32 noundef 0)
  store ptr %13, ptr %8, align 8
  %14 = load ptr, ptr %8, align 8
  %15 = load i32, ptr @ett_ip_opt_type, align 4
  %16 = call ptr @proto_item_add_subtree(ptr noundef %14, i32 noundef %15)
  store ptr %16, ptr %7, align 8
  %17 = load ptr, ptr %7, align 8
  %18 = load i32, ptr @hf_ip_opt_type_copy, align 4
  %19 = load ptr, ptr %4, align 8
  %20 = load i32, ptr %5, align 4
  %21 = call ptr @proto_tree_add_item(ptr noundef %17, i32 noundef %18, ptr noundef %19, i32 noundef %20, i32 noundef 1, i32 noundef 0)
  %22 = load ptr, ptr %7, align 8
  %23 = load i32, ptr @hf_ip_opt_type_class, align 4
  %24 = load ptr, ptr %4, align 8
  %25 = load i32, ptr %5, align 4
  %26 = call ptr @proto_tree_add_item(ptr noundef %22, i32 noundef %23, ptr noundef %24, i32 noundef %25, i32 noundef 1, i32 noundef 0)
  %27 = load ptr, ptr %7, align 8
  %28 = load i32, ptr @hf_ip_opt_type_number, align 4
  %29 = load ptr, ptr %4, align 8
  %30 = load i32, ptr %5, align 4
  %31 = call ptr @proto_tree_add_item(ptr noundef %27, i32 noundef %28, ptr noundef %29, i32 noundef %30, i32 noundef 1, i32 noundef 0)
  call void @llvm.lifetime.end.p0(i64 8, ptr %8) #12
  call void @llvm.lifetime.end.p0(i64 8, ptr %7) #12
  ret void
}

; Function Attrs: null_pointer_is_valid sspstrong uwtable
define internal ptr @ip_var_option_header(ptr noundef %0, ptr noundef %1, ptr noundef %2, i32 noundef %3, i32 noundef %4, ptr noundef %5, i32 noundef %6) #1 {
  %8 = alloca ptr, align 8
  %9 = alloca ptr, align 8
  %10 = alloca ptr, align 8
  %11 = alloca i32, align 4
  %12 = alloca i32, align 4
  %13 = alloca ptr, align 8
  %14 = alloca i32, align 4
  %15 = alloca ptr, align 8
  %16 = alloca ptr, align 8
  store ptr %0, ptr %8, align 8
  store ptr %1, ptr %9, align 8
  store ptr %2, ptr %10, align 8
  store i32 %3, ptr %11, align 4
  store i32 %4, ptr %12, align 4
  store ptr %5, ptr %13, align 8
  store i32 %6, ptr %14, align 4
  call void @llvm.lifetime.start.p0(i64 8, ptr %15) #12
  call void @llvm.lifetime.start.p0(i64 8, ptr %16) #12
  %17 = load ptr, ptr %8, align 8
  %18 = load i32, ptr %11, align 4
  %19 = load ptr, ptr %10, align 8
  %20 = load i32, ptr %14, align 4
  %21 = call ptr @proto_tree_add_item(ptr noundef %17, i32 noundef %18, ptr noundef %19, i32 noundef 0, i32 noundef %20, i32 noundef 0)
  %22 = load ptr, ptr %13, align 8
  store ptr %21, ptr %22, align 8
  %23 = load ptr, ptr %13, align 8
  %24 = load ptr, ptr %23, align 8
  %25 = load i32, ptr %12, align 4
  %26 = call ptr @proto_item_add_subtree(ptr noundef %24, i32 noundef %25)
  store ptr %26, ptr %15, align 8
  %27 = load ptr, ptr %13, align 8
  %28 = load ptr, ptr %27, align 8
  %29 = load i32, ptr %14, align 4
  call void (ptr, ptr, ...) @proto_item_append_text(ptr noundef %28, ptr noundef @.str.600, i32 noundef %29)
  %30 = load ptr, ptr %10, align 8
  %31 = load ptr, ptr %15, align 8
  call void @dissect_ipopt_type(ptr noundef %30, i32 noundef 0, ptr noundef %31)
  %32 = load ptr, ptr %15, align 8
  %33 = load i32, ptr @hf_ip_opt_len, align 4
  %34 = load ptr, ptr %10, align 8
  %35 = call ptr @proto_tree_add_item(ptr noundef %32, i32 noundef %33, ptr noundef %34, i32 noundef 1, i32 noundef 1, i32 noundef 0)
  store ptr %35, ptr %16, align 8
  %36 = load i32, ptr %14, align 4
  %37 = icmp ugt i32 %36, 40
  br i1 %37, label %38, label %42

38:                                               ; preds = %7
  %39 = load ptr, ptr %9, align 8
  %40 = load ptr, ptr %16, align 8
  %41 = call ptr @expert_add_info(ptr noundef %39, ptr noundef %40, ptr noundef @ei_ip_opt_len_invalid)
  br label %42

42:                                               ; preds = %38, %7
  %43 = load ptr, ptr %15, align 8
  call void @llvm.lifetime.end.p0(i64 8, ptr %16) #12
  call void @llvm.lifetime.end.p0(i64 8, ptr %15) #12
  ret ptr %43
}