; Function Attrs: null_pointer_is_valid sspstrong uwtable
define internal fastcc ptr @ip_var_option_header(ptr noundef %0, ptr noundef %1, ptr noundef %2, i32 noundef %3, i32 noundef %4, ptr noundef captures(none) initializes((0, 8)) %5, i32 noundef %6) unnamed_addr #1 {
  %8 = tail call ptr @proto_tree_add_item(ptr noundef %0, i32 noundef %3, ptr noundef %2, i32 noundef 0, i32 noundef %6, i32 noundef 0)
  store ptr %8, ptr %5, align 8
  %9 = tail call ptr @proto_item_add_subtree(ptr noundef %8, i32 noundef %4)
  %10 = load ptr, ptr %5, align 8
  tail call void (ptr, ptr, ...) @proto_item_append_text(ptr noundef %10, ptr noundef nonnull @.str.600, i32 noundef %6)
  %11 = load i32, ptr @hf_ip_opt_type, align 4
  %12 = tail call ptr @proto_tree_add_item(ptr noundef %9, i32 noundef %11, ptr noundef %2, i32 noundef 0, i32 noundef 1, i32 noundef 0)
  %13 = load i32, ptr @ett_ip_opt_type, align 4
  %14 = tail call ptr @proto_item_add_subtree(ptr noundef %12, i32 noundef %13)
  %15 = load i32, ptr @hf_ip_opt_type_copy, align 4
  %16 = tail call ptr @proto_tree_add_item(ptr noundef %14, i32 noundef %15, ptr noundef %2, i32 noundef 0, i32 noundef 1, i32 noundef 0)
  %17 = load i32, ptr @hf_ip_opt_type_class, align 4
  %18 = tail call ptr @proto_tree_add_item(ptr noundef %14, i32 noundef %17, ptr noundef %2, i32 noundef 0, i32 noundef 1, i32 noundef 0)
  %19 = load i32, ptr @hf_ip_opt_type_number, align 4
  %20 = tail call ptr @proto_tree_add_item(ptr noundef %14, i32 noundef %19, ptr noundef %2, i32 noundef 0, i32 noundef 1, i32 noundef 0)
  %21 = load i32, ptr @hf_ip_opt_len, align 4
  %22 = tail call ptr @proto_tree_add_item(ptr noundef %9, i32 noundef %21, ptr noundef %2, i32 noundef 1, i32 noundef 1, i32 noundef 0)
  %23 = icmp ugt i32 %6, 40
  br i1 %23, label %24, label %26

24:                                               ; preds = %7
  %25 = tail call ptr @expert_add_info(ptr noundef %1, ptr noundef %22, ptr noundef nonnull @ei_ip_opt_len_invalid)
  br label %26

26:                                               ; preds = %24, %7
  ret ptr %9
}